target datalayout = "e-m:e-p270:32:32-p271:32:32-p272:64:64-i64:64-i128:128-f80:128-n8:16:32:64-S128"
target triple = "x86_64-pc-linux-gnu"

; Function Attrs: nounwind sspstrong uwtable
define internal i64 @enum_uniq(i64 noundef %0) #0 {
  %2 = alloca i64, align 8
  %3 = alloca i64, align 8
  %4 = alloca i64, align 8
  %5 = alloca ptr, align 8
  store i64 %0, ptr %2, align 8, !tbaa !14
  call void @llvm.lifetime.start.p0(i64 8, ptr %3) #22
  call void @llvm.lifetime.start.p0(i64 8, ptr %4) #22
  call void @llvm.lifetime.start.p0(i64 8, ptr %5) #22
  %6 = call i32 @rb_block_given_p()
  %7 = icmp ne i32 %6, 0
  %8 = select i1 %7, ptr @uniq_iter, ptr @uniq_func
  store ptr %8, ptr %5, align 8, !tbaa !26
  %9 = call i64 @rb_hash_new()
  %10 = call i64 @rb_obj_hide(i64 noundef %9)
  store i64 %10, ptr %3, align 8, !tbaa !14
  %11 = load i64, ptr %2, align 8, !tbaa !14
  %12 = load ptr, ptr %5, align 8, !tbaa !26
  %13 = load i64, ptr %3, align 8, !tbaa !14
  %14 = call i64 @rb_block_call(i64 noundef %11, i64 noundef 3073, i32 noundef 0, ptr noundef null, ptr noundef %12, i64 noundef %13)
  %15 = load i64, ptr %3, align 8, !tbaa !14
  %16 = call i64 @rb_hash_values(i64 noundef %15)
  store i64 %16, ptr %4, align 8, !tbaa !14
  %17 = load i64, ptr %3, align 8, !tbaa !14
  %18 = call i64 @rb_hash_clear(i64 noundef %17)
  %19 = load i64, ptr %4, align 8, !tbaa !14
  call void @llvm.lifetime.end.p0(i64 8, ptr %5) #22
  call void @llvm.lifetime.end.p0(i64 8, ptr %4) #22
  call void @llvm.lifetime.end.p0(i64 8, ptr %3) #22
  ret i64 %19
}