; Function Attrs: nounwind sspstrong uwtable
define internal i64 @enum_uniq(i64 noundef %0) #0 {
  %2 = tail call i32 @rb_block_given_p() #14
  %.not = icmp eq i32 %2, 0
  %3 = select i1 %.not, ptr @uniq_func, ptr @uniq_iter
  %4 = tail call i64 @rb_hash_new() #14
  %5 = tail call i64 @rb_obj_hide(i64 noundef %4) #14
  %6 = tail call i64 @rb_block_call(i64 noundef %0, i64 noundef 3073, i32 noundef 0, ptr noundef null, ptr noundef nonnull %3, i64 noundef %5) #14
  %7 = tail call i64 @rb_hash_values(i64 noundef %5) #14
  %8 = tail call i64 @rb_hash_clear(i64 noundef %5) #14
  ret i64 %7
}